; Function Attrs: nounwind uwtable
define internal range(i32 0, 2) i32 @reset(ptr noundef initializes((48, 52)) %0) #4 {
  %2 = getelementptr inbounds nuw i8, ptr %0, i64 48
  store i32 0, ptr %2, align 8
  %3 = getelementptr inbounds nuw i8, ptr %0, i64 8
  %4 = load i32, ptr %3, align 8
  switch i32 %4, label %34 [
    i32 0, label %5
    i32 1, label %sync.exit
  ]

5:                                                ; preds = %1
  %6 = tail call ptr @aom_calloc(i64 noundef 1, i64 noundef 96) #10
  store ptr %6, ptr %0, align 8
  %7 = icmp eq ptr %6, null
  br i1 %7, label %sync.exit, label %8

8:                                                ; preds = %5
  %9 = tail call i32 @pthread_mutex_init(ptr noundef nonnull %6, ptr noundef null) #10
  %.not24 = icmp eq i32 %9, 0
  br i1 %.not24, label %10, label %32

10:                                               ; preds = %8
  %11 = load ptr, ptr %0, align 8
  %12 = getelementptr inbounds nuw i8, ptr %11, i64 40
  %13 = tail call i32 @pthread_cond_init(ptr noundef nonnull %12, ptr noundef null) #10
  %.not25 = icmp eq i32 %13, 0
  %14 = load ptr, ptr %0, align 8
  br i1 %.not25, label %17, label %15

15:                                               ; preds = %10
  %16 = tail call i32 @pthread_mutex_destroy(ptr noundef %14) #10
  br label %32

17:                                               ; preds = %10
  %18 = tail call i32 @pthread_mutex_lock(ptr noundef %14) #10
  %19 = load ptr, ptr %0, align 8
  %20 = getelementptr inbounds nuw i8, ptr %19, i64 88
  %21 = tail call i32 @pthread_create(ptr noundef nonnull %20, ptr noundef null, ptr noundef nonnull @thread_loop, ptr noundef nonnull %0) #10
  %.not26 = icmp eq i32 %21, 0
  br i1 %.not26, label %22, label %.critedge

22:                                               ; preds = %17
  store i32 1, ptr %3, align 8
  %23 = load ptr, ptr %0, align 8
  %24 = tail call i32 @pthread_mutex_unlock(ptr noundef %23) #10
  br label %sync.exit

.critedge:                                        ; preds = %17
  %25 = load ptr, ptr %0, align 8
  %26 = tail call i32 @pthread_mutex_unlock(ptr noundef %25) #10
  %27 = load ptr, ptr %0, align 8
  %28 = tail call i32 @pthread_mutex_destroy(ptr noundef %27) #10
  %29 = load ptr, ptr %0, align 8
  %30 = getelementptr inbounds nuw i8, ptr %29, i64 40
  %31 = tail call i32 @pthread_cond_destroy(ptr noundef nonnull %30) #10
  br label %32

32:                                               ; preds = %8, %.critedge, %15
  %33 = load ptr, ptr %0, align 8
  tail call void @aom_free(ptr noundef %33) #10
  store ptr null, ptr %0, align 8
  br label %sync.exit

34:                                               ; preds = %1
  %35 = load ptr, ptr %0, align 8
  %36 = icmp eq ptr %35, null
  br i1 %36, label %sync.exit, label %37

37:                                               ; preds = %34
  %38 = tail call i32 @pthread_mutex_lock(ptr noundef nonnull %35) #10
  %39 = load i32, ptr %3, align 8
  %switch.i = icmp ult i32 %39, 2
  br i1 %switch.i, label %._crit_edge.i.i, label %.lr.ph.i.i

.lr.ph.i.i:                                       ; preds = %37, %.lr.ph.i.i
  %40 = load ptr, ptr %0, align 8
  %41 = getelementptr inbounds nuw i8, ptr %40, i64 40
  %42 = tail call i32 @pthread_cond_wait(ptr noundef nonnull %41, ptr noundef %40) #10
  %.pr.i.i = load i32, ptr %3, align 8
  %.not11.i.i = icmp eq i32 %.pr.i.i, 1
  br i1 %.not11.i.i, label %._crit_edge.i.i, label %.lr.ph.i.i, !llvm.loop !4

._crit_edge.i.i:                                  ; preds = %.lr.ph.i.i, %37
  %43 = load ptr, ptr %0, align 8
  %44 = tail call i32 @pthread_mutex_unlock(ptr noundef %43) #10
  %.pre = load i32, ptr %2, align 8
  %45 = icmp eq i32 %.pre, 0
  %46 = zext i1 %45 to i32
  br label %sync.exit

sync.exit:                                        ; preds = %._crit_edge.i.i, %34, %22, %1, %5, %32
  %.021 = phi i32 [ 0, %32 ], [ 0, %5 ], [ 1, %22 ], [ %4, %1 ], [ 1, %34 ], [ %46, %._crit_edge.i.i ]
  ret i32 %.021
}